target datalayout = "e-m:e-p270:32:32-p271:32:32-p272:64:64-i64:64-i128:128-f80:128-n8:16:32:64-S128"
target triple = "x86_64-pc-linux-gnu"

%"class.draco::IndexType.84" = type { i32 }
%"class.draco::ObjEncoder" = type { ptr, ptr, ptr, ptr, ptr, ptr, [20 x i8], ptr, ptr, ptr, %"class.std::unordered_map", i32, %"class.std::unordered_map", i32, %"class.std::__cxx11::basic_string" }
%"class.std::unordered_map" = type { %"class.std::_Hashtable" }
%"class.std::_Hashtable" = type { ptr, i64, %"struct.std::__detail::_Hash_node_base", i64, %"struct.std::__detail::_Prime_rehash_policy", ptr }
%"struct.std::__detail::_Hash_node_base" = type { ptr }
%"struct.std::__detail::_Prime_rehash_policy" = type { float, i64 }
%"class.std::__cxx11::basic_string" = type { %"struct.std::__cxx11::basic_string<char>::_Alloc_hider", i64, %union.anon }
%"struct.std::__cxx11::basic_string<char>::_Alloc_hider" = type { ptr }
%union.anon = type { i64, [8 x i8] }

; Function Attrs: mustprogress uwtable
define dso_local noundef zeroext i1 @_ZN5draco10ObjEncoder20EncodeFaceAttributesENS_9IndexTypeIjNS_19FaceIndex_tag_type_EEE(ptr noundef nonnull align 8 dereferenceable(256) %0, i32 %1) #5 align 2 {
  %3 = alloca i1, align 1
  %4 = alloca %"class.draco::IndexType.84", align 4
  %5 = alloca ptr, align 8
  %6 = alloca %"class.draco::IndexType.84", align 4
  %7 = alloca %"class.draco::IndexType.84", align 4
  %8 = getelementptr inbounds nuw %"class.draco::IndexType.84", ptr %4, i32 0, i32 0
  store i32 %1, ptr %8, align 4
  store ptr %0, ptr %5, align 8, !tbaa !4
  %9 = load ptr, ptr %5, align 8
  %10 = getelementptr inbounds nuw %"class.draco::ObjEncoder", ptr %9, i32 0, i32 4
  %11 = load ptr, ptr %10, align 8, !tbaa !30
  %12 = icmp ne ptr %11, null
  br i1 %12, label %13, label %19

13:                                               ; preds = %2
  call void @llvm.memcpy.p0.p0.i64(ptr align 4 %6, ptr align 4 %4, i64 4, i1 false), !tbaa.struct !66
  %14 = getelementptr inbounds nuw %"class.draco::IndexType.84", ptr %6, i32 0, i32 0
  %15 = load i32, ptr %14, align 4
  %16 = call noundef zeroext i1 @_ZN5draco10ObjEncoder15EncodeSubObjectENS_9IndexTypeIjNS_19FaceIndex_tag_type_EEE(ptr noundef nonnull align 8 dereferenceable(256) %9, i32 %15)
  br i1 %16, label %18, label %17

17:                                               ; preds = %13
  store i1 false, ptr %3, align 1
  br label %30

18:                                               ; preds = %13
  br label %19

19:                                               ; preds = %18, %2
  %20 = getelementptr inbounds nuw %"class.draco::ObjEncoder", ptr %9, i32 0, i32 3
  %21 = load ptr, ptr %20, align 8, !tbaa !29
  %22 = icmp ne ptr %21, null
  br i1 %22, label %23, label %29

23:                                               ; preds = %19
  call void @llvm.memcpy.p0.p0.i64(ptr align 4 %7, ptr align 4 %4, i64 4, i1 false), !tbaa.struct !66
  %24 = getelementptr inbounds nuw %"class.draco::IndexType.84", ptr %7, i32 0, i32 0
  %25 = load i32, ptr %24, align 4
  %26 = call noundef zeroext i1 @_ZN5draco10ObjEncoder14EncodeMaterialENS_9IndexTypeIjNS_19FaceIndex_tag_type_EEE(ptr noundef nonnull align 8 dereferenceable(256) %9, i32 %25)
  br i1 %26, label %28, label %27

27:                                               ; preds = %23
  store i1 false, ptr %3, align 1
  br label %30

28:                                               ; preds = %23
  br label %29

29:                                               ; preds = %28, %19
  store i1 true, ptr %3, align 1
  br label %30

30:                                               ; preds = %29, %27, %17
  %31 = load i1, ptr %3, align 1
  ret i1 %31
}