; Function Attrs: mustprogress uwtable
define dso_local noundef zeroext i1 @_ZN5draco10ObjEncoder20EncodeFaceAttributesENS_9IndexTypeIjNS_19FaceIndex_tag_type_EEE(ptr noundef nonnull align 8 captures(none) dereferenceable(256) %0, i32 %1) local_unnamed_addr #4 align 2 {
  %3 = getelementptr inbounds nuw i8, ptr %0, i64 32
  %4 = load ptr, ptr %3, align 8, !tbaa !68
  %.not = icmp eq ptr %4, null
  br i1 %.not, label %7, label %5

5:                                                ; preds = %2
  %6 = tail call noundef zeroext i1 @_ZN5draco10ObjEncoder15EncodeSubObjectENS_9IndexTypeIjNS_19FaceIndex_tag_type_EEE(ptr noundef nonnull align 8 dereferenceable(256) %0, i32 %1)
  br i1 %6, label %7, label %13

7:                                                ; preds = %5, %2
  %8 = getelementptr inbounds nuw i8, ptr %0, i64 24
  %9 = load ptr, ptr %8, align 8, !tbaa !124
  %.not5 = icmp eq ptr %9, null
  br i1 %.not5, label %12, label %10

10:                                               ; preds = %7
  %11 = tail call noundef zeroext i1 @_ZN5draco10ObjEncoder14EncodeMaterialENS_9IndexTypeIjNS_19FaceIndex_tag_type_EEE(ptr noundef nonnull align 8 dereferenceable(256) %0, i32 %1)
  br i1 %11, label %12, label %13

12:                                               ; preds = %10, %7
  br label %13

13:                                               ; preds = %10, %5, %12
  %.0 = phi i1 [ true, %12 ], [ false, %5 ], [ false, %10 ]
  ret i1 %.0
}